; Function Attrs: mustprogress uwtable
define void @_ZN5faiss14IndexNNDescentC2EiiNS_10MetricTypeE(ptr noundef nonnull align 8 dereferenceable(144) %0, i32 noundef %1, i32 noundef %2, i32 noundef %3) unnamed_addr #1 align 2 personality ptr @__gxx_personality_v0 {
  %5 = getelementptr inbounds i8, ptr %0, i64 8
  store i32 %1, ptr %5, align 8
  %6 = getelementptr inbounds i8, ptr %0, i64 16
  store i64 0, ptr %6, align 8
  %7 = getelementptr inbounds i8, ptr %0, i64 24
  store i8 0, ptr %7, align 8
  %8 = getelementptr inbounds i8, ptr %0, i64 25
  store i8 1, ptr %8, align 1
  %9 = getelementptr inbounds i8, ptr %0, i64 28
  store i32 %3, ptr %9, align 4
  %10 = getelementptr inbounds i8, ptr %0, i64 32
  store float 0.000000e+00, ptr %10, align 8
  store ptr getelementptr inbounds ({ [24 x ptr] }, ptr @_ZTVN5faiss14IndexNNDescentE, i64 0, i32 0, i64 2), ptr %0, align 8
  %11 = getelementptr inbounds i8, ptr %0, i64 40
  invoke void @_ZN5faiss9NNDescentC1Eii(ptr noundef nonnull align 8 dereferenceable(88) %11, i32 noundef %1, i32 noundef %2)
          to label %12 unwind label %15

12:                                               ; preds = %4
  %13 = getelementptr inbounds i8, ptr %0, i64 128
  store i8 0, ptr %13, align 8
  %14 = getelementptr inbounds i8, ptr %0, i64 136
  store ptr null, ptr %14, align 8
  ret void

15:                                               ; preds = %4
  %16 = landingpad { ptr, i32 }
          cleanup
  tail call void @_ZN5faiss5IndexD2Ev(ptr noundef nonnull align 8 dereferenceable(36) %0) #8
  resume { ptr, i32 } %16
}